; Function Attrs: nounwind uwtable
define ptr @glfwGetWindowUserPointer(ptr noundef readonly captures(none) %0) local_unnamed_addr #0 {
  %2 = load i32, ptr @_glfw, align 8, !tbaa !138
  %.not = icmp eq i32 %2, 0
  br i1 %.not, label %3, label %4

3:                                                ; preds = %1
  tail call void (i32, ptr, ...) @_glfwInputError(i32 noundef 65537, ptr noundef null) #7
  br label %7

4:                                                ; preds = %1
  %5 = getelementptr inbounds nuw i8, ptr %0, i64 40
  %6 = load ptr, ptr %5, align 8, !tbaa !275
  br label %7

7:                                                ; preds = %4, %3
  %.0 = phi ptr [ %6, %4 ], [ null, %3 ]
  ret ptr %.0
}